Certificate:
    Data:
        Version: 3 (0x2)
        Serial Number: 16 (0x10)
        Signature Algorithm: sha1WithRSAEncryption
        Issuer: C=RU, ST=Moscow, L=Moscow, O=SmartLabs LLC, CN=SmartLabs Certificate Authority/emailAddress=support@smartlabs.tv
        Validity
            Not Before: Apr 22 09:44:11 2016 GMT
            Not After : Mar 29 09:44:11 2116 GMT
        Subject: C=RU, ST=Moscow, O=JSC Restream, CN=Restream Certificate Authority/emailAddress=itvsupport@restream.rt.ru
        Subject Public Key Info:
            Public Key Algorithm: rsaEncryption
            RSA Public Key: (2048 bit)
                Modulus (2048 bit):
                    00:a2:3b:29:3d:eb:62:59:a4:a0:55:cb:ba:57:d5:
                    5e:60:98:ff:4f:f4:35:c1:3f:64:7e:39:17:65:5d:
                    cd:5a:e3:24:58:4c:b9:5b:32:d8:ef:49:bd:a1:11:
                    2a:60:db:83:06:7e:84:10:1c:e9:10:f4:cb:ce:2c:
                    46:b9:20:3e:b7:54:ef:47:34:9d:8d:76:b9:60:04:
                    1a:68:7a:07:2d:48:58:5e:02:1f:a5:60:f6:b7:87:
                    92:0b:60:b7:6e:9d:9a:aa:4c:77:48:00:04:8b:fa:
                    43:73:58:83:66:55:91:c5:75:cd:7a:97:e8:42:cb:
                    49:ed:81:22:31:d9:44:96:3f:9e:6d:01:17:d1:91:
                    c8:e1:8c:63:23:a8:60:e7:b3:c0:e9:45:d0:88:d6:
                    cc:bc:08:a1:cb:8d:7e:5b:06:21:2e:30:db:ae:03:
                    b5:d1:a0:13:95:ef:f5:6d:dd:45:3e:18:5a:b3:95:
                    c3:11:3e:2d:f8:5e:dd:df:30:90:64:5d:a7:8a:1f:
                    a0:98:41:e7:51:2b:26:b7:9b:df:86:af:25:2e:d7:
                    7b:cf:b1:04:98:b4:bb:6d:ca:57:28:54:00:66:c5:
                    27:ce:41:12:6d:76:58:3a:21:f9:25:43:a7:5d:58:
                    ae:7b:57:93:dd:1a:5c:6f:78:4c:92:f0:46:39:77:
                    63:1d
                Exponent: 65537 (0x10001)
        X509v3 extensions:
            X509v3 Basic Constraints: 
                CA:FALSE
            Netscape Comment: 
                OpenSSL Generated Certificate
            X509v3 Subject Key Identifier: 
                D8:4A:64:D0:A5:E4:A8:9D:6E:0B:86:87:7D:C0:F4:60:8C:FE:E2:66
            X509v3 Authority Key Identifier: 
                keyid:8D:84:7C:AA:D4:3A:98:D9:AA:41:C7:4D:E7:B9:09:42:13:5F:85:02

    Signature Algorithm: sha1WithRSAEncryption
        9a:f3:c4:09:39:38:fb:f0:96:6c:58:68:0f:fc:46:94:15:ff:
        50:fc:de:36:d3:84:67:4b:c5:f9:cd:a7:96:6b:c5:12:69:46:
        e5:dd:75:a8:a7:82:a6:6f:97:b5:61:13:b7:ee:50:b8:4e:26:
        69:bb:29:33:63:7a:4c:82:80:31:af:00:cd:e3:76:f8:21:e1:
        2e:f8:3b:79:3c:ab:85:27:b4:dd:2f:ef:44:e5:db:7b:d4:46:
        58:76:d7:5f:1a:c8:3f:1a:a1:f7:d7:76:5b:63:1b:8f:5b:5d:
        24:99:d6:06:e5:4e:eb:51:84:00:2e:2d:24:b2:bc:16:0d:be:
        6f:21:49:0f:cd:22:10:a7:51:47:1b:60:2f:3b:44:24:e5:cc:
        be:61:ff:c8:dd:90:6f:d6:1a:08:55:69:b0:b8:e0:82:90:8c:
        b9:11:9d:0e:4b:b2:64:73:41:2e:55:9b:6a:33:38:5c:3d:6b:
        84:79:79:82:f7:54:49:7c:93:00:aa:cf:b5:2e:f3:25:38:d5:
        93:99:85:fc:5e:ef:21:3b:3d:15:54:e3:30:43:17:f9:6e:e7:
        dc:f1:cd:c3:4e:20:3f:91:c0:16:2d:82:5d:58:8a:6e:16:97:
        2d:1e:68:fe:cc:e7:4b:63:39:77:f7:a7:15:a5:1c:31:cb:e7:
        d5:55:b3:cb
-----BEGIN CERTIFICATE-----
MIIEGDCCAwCgAwIBAgIBEDANBgkqhkiG9w0BAQUFADCBljELMAkGA1UEBhMCUlUx
DzANBgNVBAgTBk1vc2NvdzEPMA0GA1UEBxMGTW9zY293MRYwFAYDVQQKEw1TbWFy
dExhYnMgTExDMSgwJgYDVQQDEx9TbWFydExhYnMgQ2VydGlmaWNhdGUgQXV0aG9y
aXR5MSMwIQYJKoZIhvcNAQkBFhRzdXBwb3J0QHNtYXJ0bGFicy50djAgFw0xNjA0
MjIwOTQ0MTFaGA8yMTE2MDMyOTA5NDQxMVowgYgxCzAJBgNVBAYTAlJVMQ8wDQYD
VQQIEwZNb3Njb3cxFTATBgNVBAoTDEpTQyBSZXN0cmVhbTEnMCUGA1UEAxMeUmVz
dHJlYW0gQ2VydGlmaWNhdGUgQXV0aG9yaXR5MSgwJgYJKoZIhvcNAQkBFhlpdHZz
dXBwb3J0QHJlc3RyZWFtLnJ0LnJ1MIIBIjANBgkqhkiG9w0BAQEFAAOCAQ8AMIIB
CgKCAQEAojspPetiWaSgVcu6V9VeYJj/T/Q1wT9kfjkXZV3NWuMkWEy5WzLY70m9
oREqYNuDBn6EEBzpEPTLzixGuSA+t1TvRzSdjXa5YAQaaHoHLUhYXgIfpWD2t4eS
C2C3bp2aqkx3SAAEi/pDc1iDZlWRxXXNepfoQstJ7YEiMdlElj+ebQEX0ZHI4Yxj
I6hg57PA6UXQiNbMvAihy41+WwYhLjDbrgO10aATle/1bd1FPhhas5XDET4t+F7d
3zCQZF2nih+gmEHnUSsmt5vfhq8lLtd7z7EEmLS7bcpXKFQAZsUnzkESbXZYOiH5
JUOnXViue1eT3Rpcb3hMkvBGOXdjHQIDAQABo3sweTAJBgNVHRMEAjAAMCwGCWCG
SAGG+EIBDQQfFh1PcGVuU1NMIEdlbmVyYXRlZCBDZXJ0aWZpY2F0ZTAdBgNVHQ4E
FgQU2Epk0KXkqJ1uC4aHfcD0YIz+4mYwHwYDVR0jBBgwFoAUjYR8qtQ6mNmqQcdN
57kJQhNfhQIwDQYJKoZIhvcNAQEFBQADggEBAJrzxAk5OPvwlmxYaA/8RpQV/1D8
3jbThGdLxfnNp5ZrxRJpRuXddaingqZvl7VhE7fuULhOJmm7KTNjekyCgDGvAM3j
dvgh4S74O3k8q4UntN0v70Tl23vURlh2118ayD8aoffXdltjG49bXSSZ1gblTutR
hAAuLSSyvBYNvm8hSQ/NIhCnUUcbYC87RCTlzL5h/8jdkG/WGghVabC44IKQjLkR
nQ5LsmRzQS5Vm2ozOFw9a4R5eYL3VEl8kwCqz7Uu8yU41ZOZhfxe7yE7PRVU4zBD
F/lu59zxzcNOID+RwBYtgl1Yim4Wly0eaP7M50tjOXf3pxWlHDHL59VVs8s=
-----END CERTIFICATE-----
