Certificate:
    Data:
        Version: 3 (0x2)
        Serial Number: 5 (0x5)
        Signature Algorithm: sha1WithRSAEncryption
        Issuer: C=RU, ST=Moscow, L=Moscow, O=SmartLabs LLC, CN=SmartLabs Certificate Authority/emailAddress=support@smartlabs.tv
        Validity
            Not Before: May 23 09:52:00 2013 GMT
            Not After : Apr 29 09:52:00 2113 GMT
        Subject: C=RU, ST=Moscow, L=Moscow, O=SmartLabs LLC, CN=Rostelecom Generic STB/emailAddress=support@smartlabs.tv
        Subject Public Key Info:
            Public Key Algorithm: rsaEncryption
            RSA Public Key: (2048 bit)
                Modulus (2048 bit):
                    00:ce:15:04:ca:54:8a:94:d3:fe:c9:68:0c:52:be:
                    5b:82:93:9b:9a:e7:c8:e9:84:4c:1d:7d:17:4b:e8:
                    bd:a0:41:a9:bc:cd:15:c1:c6:f8:cb:71:ee:79:85:
                    9a:3a:ce:54:61:e5:c2:fb:4b:37:7e:19:35:36:35:
                    2e:4b:8c:1d:29:96:c3:cf:d6:40:4a:0f:bb:16:f8:
                    30:53:a6:37:30:b0:61:82:7d:16:8b:da:3c:16:3a:
                    5f:f6:f7:83:8e:b3:55:18:de:6a:49:77:72:69:95:
                    d1:fa:1b:0f:c4:65:d0:13:da:b8:b0:f8:f7:08:ee:
                    03:61:0e:35:d0:d6:a0:ec:56:ad:08:41:db:7a:6b:
                    a8:65:f7:ce:40:1e:77:ed:9c:64:ba:45:c7:d4:75:
                    b4:48:06:d4:d6:3f:43:11:ac:ba:8d:71:15:7f:fb:
                    27:95:d4:c5:19:3f:90:67:f5:63:96:cd:9b:91:e3:
                    a0:94:2d:02:db:23:3e:79:49:90:e7:6f:e2:1e:96:
                    90:b1:72:a1:cf:7b:05:c3:3c:4d:46:0b:51:0b:0b:
                    5e:ec:ca:f6:f2:21:48:f5:db:80:0a:ea:04:4f:ef:
                    e9:c3:4d:96:e2:01:83:ac:a4:93:63:e0:bb:f6:88:
                    49:31:07:16:f8:9c:d4:9c:84:eb:97:c8:ab:0d:9a:
                    d5:f5
                Exponent: 65537 (0x10001)
        X509v3 extensions:
            X509v3 Basic Constraints: 
                CA:FALSE
            Netscape Comment: 
                OpenSSL Generated Certificate
            X509v3 Subject Key Identifier: 
                DB:50:10:D5:38:FE:92:E9:8B:75:C5:A6:F9:2B:B9:54:12:C3:CC:1B
            X509v3 Authority Key Identifier: 
                keyid:8D:84:7C:AA:D4:3A:98:D9:AA:41:C7:4D:E7:B9:09:42:13:5F:85:02

    Signature Algorithm: sha1WithRSAEncryption
        77:18:53:03:a1:3c:c9:1e:88:bd:fe:e3:ab:6e:dd:52:4d:64:
        07:1b:2b:7f:64:97:bd:1e:bd:91:fd:e3:b1:a7:8a:7c:91:e5:
        3c:b4:bb:92:5b:a6:16:a6:22:7e:05:51:86:40:e9:ad:86:d6:
        3d:41:c0:31:c3:5b:50:f4:80:8c:bb:c1:e9:4f:5e:2f:12:82:
        77:8b:d2:14:c3:6e:19:02:31:16:1d:b8:cd:e2:8d:85:42:a4:
        5f:65:48:24:c0:a4:f5:48:12:ac:3a:11:a3:87:f9:43:58:f3:
        a9:1a:41:75:9e:75:4f:9c:5f:8c:bf:2d:32:db:f6:64:73:6e:
        64:12:b6:3c:96:8c:31:ff:a0:1a:be:85:f0:74:af:d7:87:43:
        05:08:bb:14:dc:f7:b3:84:01:8f:06:aa:96:11:b3:bc:ef:ed:
        47:b2:f3:55:b8:6a:51:d5:84:c5:31:16:ad:76:b5:2f:be:a0:
        49:b8:53:73:7c:9f:49:dd:f8:3c:18:34:28:78:e1:32:0e:7e:
        03:fe:92:69:36:09:91:54:c2:93:3a:1d:90:de:41:d6:23:89:
        65:07:fa:5f:16:37:03:99:c0:65:f8:0a:59:71:0b:73:5a:02:
        82:2e:51:62:46:18:10:8c:ab:2e:b1:2d:d8:c8:15:0d:3a:fe:
        f8:f0:37:dd
-----BEGIN CERTIFICATE-----
MIIEHTCCAwWgAwIBAgIBBTANBgkqhkiG9w0BAQUFADCBljELMAkGA1UEBhMCUlUx
DzANBgNVBAgTBk1vc2NvdzEPMA0GA1UEBxMGTW9zY293MRYwFAYDVQQKEw1TbWFy
dExhYnMgTExDMSgwJgYDVQQDEx9TbWFydExhYnMgQ2VydGlmaWNhdGUgQXV0aG9y
aXR5MSMwIQYJKoZIhvcNAQkBFhRzdXBwb3J0QHNtYXJ0bGFicy50djAgFw0xMzA1
MjMwOTUyMDBaGA8yMTEzMDQyOTA5NTIwMFowgY0xCzAJBgNVBAYTAlJVMQ8wDQYD
VQQIEwZNb3Njb3cxDzANBgNVBAcTBk1vc2NvdzEWMBQGA1UEChMNU21hcnRMYWJz
IExMQzEfMB0GA1UEAxMWUm9zdGVsZWNvbSBHZW5lcmljIFNUQjEjMCEGCSqGSIb3
DQEJARYUc3VwcG9ydEBzbWFydGxhYnMudHYwggEiMA0GCSqGSIb3DQEBAQUAA4IB
DwAwggEKAoIBAQDOFQTKVIqU0/7JaAxSvluCk5ua58jphEwdfRdL6L2gQam8zRXB
xvjLce55hZo6zlRh5cL7Szd+GTU2NS5LjB0plsPP1kBKD7sW+DBTpjcwsGGCfRaL
2jwWOl/294OOs1UY3mpJd3JpldH6Gw/EZdAT2riw+PcI7gNhDjXQ1qDsVq0IQdt6
a6hl985AHnftnGS6RcfUdbRIBtTWP0MRrLqNcRV/+yeV1MUZP5Bn9WOWzZuR46CU
LQLbIz55SZDnb+IelpCxcqHPewXDPE1GC1ELC17syvbyIUj124AK6gRP7+nDTZbi
AYOspJNj4Lv2iEkxBxb4nNSchOuXyKsNmtX1AgMBAAGjezB5MAkGA1UdEwQCMAAw
LAYJYIZIAYb4QgENBB8WHU9wZW5TU0wgR2VuZXJhdGVkIENlcnRpZmljYXRlMB0G
A1UdDgQWBBTbUBDVOP6S6Yt1xab5K7lUEsPMGzAfBgNVHSMEGDAWgBSNhHyq1DqY
2apBx03nuQlCE1+FAjANBgkqhkiG9w0BAQUFAAOCAQEAdxhTA6E8yR6Ivf7jq27d
Uk1kBxsrf2SXvR69kf3jsaeKfJHlPLS7klumFqYifgVRhkDprYbWPUHAMcNbUPSA
jLvB6U9eLxKCd4vSFMNuGQIxFh24zeKNhUKkX2VIJMCk9UgSrDoRo4f5Q1jzqRpB
dZ51T5xfjL8tMtv2ZHNuZBK2PJaMMf+gGr6F8HSv14dDBQi7FNz3s4QBjwaqlhGz
vO/tR7LzVbhqUdWExTEWrXa1L76gSbhTc3yfSd34PBg0KHjhMg5+A/6SaTYJkVTC
kzodkN5B1iOJZQf6XxY3A5nAZfgKWXELc1oCgi5RYkYYEIyrLrEt2MgVDTr++PA3
3Q==
-----END CERTIFICATE-----
