Certificate:
    Data:
        Version: 3 (0x2)
        Serial Number: 2 (0x2)
        Signature Algorithm: sha1WithRSAEncryption
        Issuer: C=RU, ST=Moscow, L=Moscow, O=SmartLabs LLC, CN=SmartLabs Certificate Authority/emailAddress=support@smartlabs.tv
        Validity
            Not Before: Oct  9 12:35:35 2010 GMT
            Not After : Sep 15 12:35:35 2110 GMT
        Subject: C=RU, ST=Moscow, L=Moscow, O=SmartLabs LLC, OU=Development, CN=Developer/emailAddress=support@smartlabs.tv
        Subject Public Key Info:
            Public Key Algorithm: rsaEncryption
            RSA Public Key: (2048 bit)
                Modulus (2048 bit):
                    00:c0:c7:be:a1:54:7e:be:e6:18:01:48:5e:7d:d9:
                    59:14:0d:1b:2a:8c:15:ba:cf:f5:a5:a9:8d:7c:e5:
                    53:db:5e:0a:57:69:87:73:de:66:9a:08:c1:d9:86:
                    5d:01:34:8b:65:74:29:f2:62:65:0d:ae:54:df:06:
                    00:48:03:da:f8:6a:2a:b6:dd:73:62:ae:e0:de:f9:
                    d3:b8:f2:fa:00:c2:03:10:45:fe:24:93:26:26:08:
                    fb:65:d6:7f:9d:4f:28:63:2b:7b:2c:b5:66:7c:3c:
                    a8:6e:c3:4b:0d:44:cb:cf:f6:49:cb:f9:b1:f7:3e:
                    d5:b5:c1:84:e9:1f:f7:7a:32:1e:79:6c:d7:da:e0:
                    3d:c3:34:b7:f6:34:40:3d:6a:bc:64:53:a3:48:5b:
                    89:46:c8:47:17:b9:64:67:03:cc:fb:b9:2a:d4:54:
                    39:1d:40:a7:7d:a6:8f:90:e8:4d:fb:7c:5b:28:4e:
                    fe:f7:78:d9:c6:f3:31:33:3b:35:2b:56:75:62:73:
                    4c:dc:3d:5d:82:80:a9:6c:20:6d:32:bd:46:9f:46:
                    05:0e:89:7c:4c:ac:97:ef:c9:68:cb:08:5c:12:09:
                    43:0f:17:31:f8:80:21:2f:e3:6f:a8:0a:30:0b:bc:
                    4d:79:9d:f3:d3:09:a8:f4:fd:9d:3a:69:c8:37:74:
                    a6:37
                Exponent: 65537 (0x10001)
        X509v3 extensions:
            X509v3 Basic Constraints: 
                CA:FALSE
            Netscape Comment: 
                OpenSSL Generated Certificate
            X509v3 Subject Key Identifier: 
                53:30:68:5E:7D:36:39:8E:D1:24:8A:16:21:67:38:52:A7:D0:9B:2F
            X509v3 Authority Key Identifier: 
                keyid:8D:84:7C:AA:D4:3A:98:D9:AA:41:C7:4D:E7:B9:09:42:13:5F:85:02

    Signature Algorithm: sha1WithRSAEncryption
        2a:3e:6f:fc:c5:9a:b7:c3:0c:f1:94:e6:76:fa:f9:cd:71:d8:
        c0:7e:cb:68:ea:08:9b:db:15:e1:2b:aa:02:f3:c7:9b:5c:c1:
        a5:e6:a3:08:33:d8:88:a4:f2:cc:19:87:ba:ac:c4:64:97:c7:
        5c:50:de:cf:b9:0a:a8:98:4d:9b:05:ea:7d:eb:3b:4f:1d:b6:
        aa:13:14:be:93:fb:0d:58:2b:0b:b0:bb:be:45:e3:75:04:da:
        47:d4:d6:30:40:eb:0d:ee:21:1e:88:c9:6e:8b:b6:09:9b:a7:
        6f:29:60:1b:ca:7a:68:92:3b:ab:1d:3e:fc:a4:a8:6a:60:24:
        5d:75:7f:6a:d9:7d:9e:d9:f0:2d:93:4a:1e:b3:db:91:2c:dc:
        23:e0:57:fa:55:af:26:a0:4e:21:18:ed:41:d5:32:3a:1e:cb:
        59:96:3c:3c:98:87:a0:16:9e:4c:88:7c:8e:a2:9d:11:13:36:
        74:3b:c8:3a:81:51:23:fb:31:7c:b1:3f:29:6a:83:6e:b7:4b:
        3d:66:80:47:a3:43:87:5a:15:34:ff:43:dd:5f:b8:a8:10:1a:
        34:39:ae:6e:08:fe:80:e3:7b:bc:85:57:cf:c7:a2:9b:b7:18:
        50:d5:54:00:e6:13:89:a3:f1:9f:0e:6e:5e:c9:c8:91:dc:9d:
        82:89:aa:79
-----BEGIN CERTIFICATE-----
MIIEJjCCAw6gAwIBAgIBAjANBgkqhkiG9w0BAQUFADCBljELMAkGA1UEBhMCUlUx
DzANBgNVBAgTBk1vc2NvdzEPMA0GA1UEBxMGTW9zY293MRYwFAYDVQQKEw1TbWFy
dExhYnMgTExDMSgwJgYDVQQDEx9TbWFydExhYnMgQ2VydGlmaWNhdGUgQXV0aG9y
aXR5MSMwIQYJKoZIhvcNAQkBFhRzdXBwb3J0QHNtYXJ0bGFicy50djAgFw0xMDEw
MDkxMjM1MzVaGA8yMTEwMDkxNTEyMzUzNVowgZYxCzAJBgNVBAYTAlJVMQ8wDQYD
VQQIEwZNb3Njb3cxDzANBgNVBAcTBk1vc2NvdzEWMBQGA1UEChMNU21hcnRMYWJz
IExMQzEUMBIGA1UECxMLRGV2ZWxvcG1lbnQxEjAQBgNVBAMTCURldmVsb3BlcjEj
MCEGCSqGSIb3DQEJARYUc3VwcG9ydEBzbWFydGxhYnMudHYwggEiMA0GCSqGSIb3
DQEBAQUAA4IBDwAwggEKAoIBAQDAx76hVH6+5hgBSF592VkUDRsqjBW6z/WlqY18
5VPbXgpXaYdz3maaCMHZhl0BNItldCnyYmUNrlTfBgBIA9r4aiq23XNiruDe+dO4
8voAwgMQRf4kkyYmCPtl1n+dTyhjK3sstWZ8PKhuw0sNRMvP9knL+bH3PtW1wYTp
H/d6Mh55bNfa4D3DNLf2NEA9arxkU6NIW4lGyEcXuWRnA8z7uSrUVDkdQKd9po+Q
6E37fFsoTv73eNnG8zEzOzUrVnVic0zcPV2CgKlsIG0yvUafRgUOiXxMrJfvyWjL
CFwSCUMPFzH4gCEv42+oCjALvE15nfPTCaj0/Z06acg3dKY3AgMBAAGjezB5MAkG
A1UdEwQCMAAwLAYJYIZIAYb4QgENBB8WHU9wZW5TU0wgR2VuZXJhdGVkIENlcnRp
ZmljYXRlMB0GA1UdDgQWBBRTMGhefTY5jtEkihYhZzhSp9CbLzAfBgNVHSMEGDAW
gBSNhHyq1DqY2apBx03nuQlCE1+FAjANBgkqhkiG9w0BAQUFAAOCAQEAKj5v/MWa
t8MM8ZTmdvr5zXHYwH7LaOoIm9sV4SuqAvPHm1zBpeajCDPYiKTyzBmHuqzEZJfH
XFDez7kKqJhNmwXqfes7Tx22qhMUvpP7DVgrC7C7vkXjdQTaR9TWMEDrDe4hHojJ
bou2CZunbylgG8p6aJI7qx0+/KSoamAkXXV/atl9ntnwLZNKHrPbkSzcI+BX+lWv
JqBOIRjtQdUyOh7LWZY8PJiHoBaeTIh8jqKdERM2dDvIOoFRI/sxfLE/KWqDbrdL
PWaAR6NDh1oVNP9D3V+4qBAaNDmubgj+gON7vIVXz8eim7cYUNVUAOYTiaPxnw5u
XsnIkdydgomqeQ==
-----END CERTIFICATE-----
